target datalayout = "e-m:e-p270:32:32-p271:32:32-p272:64:64-i64:64-i128:128-f80:128-n8:16:32:64-S128"
target triple = "x86_64-pc-linux-gnu"

; Function Attrs: mustprogress nounwind uwtable
define linkonce_odr hidden noundef i64 @_Z16java_shift_rightli(i64 noundef %0, i32 noundef %1) #1 comdat {
  %3 = alloca i64, align 8
  %4 = alloca i32, align 4
  %5 = alloca i32, align 4
  %6 = alloca i64, align 8
  store i64 %0, ptr %3, align 8
  store i32 %1, ptr %4, align 4
  store i32 63, ptr %5, align 4
  %7 = load i64, ptr %3, align 8
  store i64 %7, ptr %6, align 8
  %8 = load i32, ptr %4, align 4
  %9 = and i32 %8, 63
  %10 = load i64, ptr %6, align 8
  %11 = zext i32 %9 to i64
  %12 = ashr i64 %10, %11
  store i64 %12, ptr %6, align 8
  %13 = load i64, ptr %6, align 8
  ret i64 %13
}

; Function Attrs: mustprogress nounwind uwtable
define linkonce_odr hidden noundef i64 @_Z20multiply_high_signedll(i64 noundef %0, i64 noundef %1) #1 comdat {
  %3 = alloca i64, align 8
  %4 = alloca i64, align 8
  %5 = alloca i64, align 8
  %6 = alloca i64, align 8
  %7 = alloca i64, align 8
  %8 = alloca i64, align 8
  %9 = alloca i64, align 8
  %10 = alloca i64, align 8
  %11 = alloca i64, align 8
  %12 = alloca i64, align 8
  store i64 %0, ptr %3, align 8
  store i64 %1, ptr %4, align 8
  %13 = load i64, ptr %3, align 8
  %14 = call noundef i64 @_Z16java_shift_rightli(i64 noundef %13, i32 noundef 32)
  store i64 %14, ptr %5, align 8
  %15 = load i64, ptr %3, align 8
  %16 = and i64 %15, 4294967295
  store i64 %16, ptr %6, align 8
  %17 = load i64, ptr %4, align 8
  %18 = call noundef i64 @_Z16java_shift_rightli(i64 noundef %17, i32 noundef 32)
  store i64 %18, ptr %7, align 8
  %19 = load i64, ptr %4, align 8
  %20 = and i64 %19, 4294967295
  store i64 %20, ptr %8, align 8
  %21 = load i64, ptr %6, align 8
  %22 = load i64, ptr %8, align 8
  %23 = mul i64 %21, %22
  store i64 %23, ptr %9, align 8
  %24 = load i64, ptr %5, align 8
  %25 = load i64, ptr %8, align 8
  %26 = mul nsw i64 %24, %25
  %27 = load i64, ptr %9, align 8
  %28 = lshr i64 %27, 32
  %29 = add i64 %26, %28
  store i64 %29, ptr %10, align 8
  %30 = load i64, ptr %10, align 8
  %31 = and i64 %30, 4294967295
  store i64 %31, ptr %11, align 8
  %32 = load i64, ptr %10, align 8
  %33 = call noundef i64 @_Z16java_shift_rightli(i64 noundef %32, i32 noundef 32)
  store i64 %33, ptr %12, align 8
  %34 = load i64, ptr %6, align 8
  %35 = load i64, ptr %7, align 8
  %36 = mul nsw i64 %34, %35
  %37 = load i64, ptr %11, align 8
  %38 = add nsw i64 %37, %36
  store i64 %38, ptr %11, align 8
  %39 = load i64, ptr %5, align 8
  %40 = load i64, ptr %7, align 8
  %41 = mul nsw i64 %39, %40
  %42 = load i64, ptr %12, align 8
  %43 = add nsw i64 %41, %42
  %44 = load i64, ptr %11, align 8
  %45 = call noundef i64 @_Z16java_shift_rightli(i64 noundef %44, i32 noundef 32)
  %46 = add nsw i64 %43, %45
  ret i64 %46
}

; Function Attrs: mustprogress nounwind uwtable
define hidden noundef i64 @_ZN25IntegerTypeMultiplicationIlE13multiply_highEll(i64 noundef %0, i64 noundef %1) #1 align 2 {
  %3 = alloca i64, align 8
  %4 = alloca i64, align 8
  store i64 %0, ptr %3, align 8
  store i64 %1, ptr %4, align 8
  %5 = load i64, ptr %3, align 8
  %6 = load i64, ptr %4, align 8
  %7 = call noundef i64 @_Z20multiply_high_signedll(i64 noundef %5, i64 noundef %6)
  ret i64 %7
}