; Function Attrs: mustprogress nofree norecurse nosync nounwind willreturn memory(none) uwtable
define hidden noundef i64 @_ZN25IntegerTypeMultiplicationIlE13multiply_highEll(i64 noundef %0, i64 noundef %1) local_unnamed_addr #4 align 2 {
  %3 = ashr i64 %0, 32
  %4 = and i64 %0, 4294967295
  %5 = ashr i64 %1, 32
  %6 = and i64 %1, 4294967295
  %7 = mul nuw i64 %6, %4
  %8 = mul nsw i64 %6, %3
  %9 = lshr i64 %7, 32
  %10 = add nsw i64 %9, %8
  %11 = and i64 %10, 4294967295
  %12 = ashr i64 %10, 32
  %13 = mul nsw i64 %5, %4
  %14 = add nsw i64 %11, %13
  %15 = mul nsw i64 %5, %3
  %16 = add nsw i64 %12, %15
  %17 = ashr i64 %14, 32
  %18 = add nsw i64 %16, %17
  ret i64 %18
}